; Function Attrs: mustprogress uwtable
define internal void @_ZN12_GLOBAL__N_146ParseTest_TestReadingOptionalFlagsFromEnv_Test8TestBodyEv(ptr nonnull readnone align 8 captures(none) %0) unnamed_addr #3 align 2 personality ptr @__gxx_personality_v0 {
  %2 = alloca [2 x ptr], align 16
  %3 = alloca %"class.absl::base_internal::ScopedSetEnv", align 8
  %4 = alloca %"class.absl::base_internal::ScopedSetEnv", align 8
  call void @llvm.lifetime.start.p0(i64 16, ptr nonnull %2) #33
  call void @llvm.memcpy.p0.p0.i64(ptr noundef nonnull align 16 dereferenceable(16) %2, ptr noundef nonnull align 16 dereferenceable(16) @__const._ZN12_GLOBAL__N_146ParseTest_TestReadingOptionalFlagsFromEnv_Test8TestBodyEv.in_args1, i64 16, i1 false)
  call void @llvm.lifetime.start.p0(i64 72, ptr nonnull %3) #33
  call void @_ZN4absl13base_internal12ScopedSetEnvC1EPKcS3_(ptr noundef nonnull align 8 dereferenceable(65) %3, ptr noundef nonnull @.str.555, ptr noundef nonnull @.str.567)
  call void @llvm.lifetime.start.p0(i64 72, ptr nonnull %4) #33
  invoke void @_ZN4absl13base_internal12ScopedSetEnvC1EPKcS3_(ptr noundef nonnull align 8 dereferenceable(65) %4, ptr noundef nonnull @.str.557, ptr noundef nonnull @.str.568)
          to label %5 unwind label %7

5:                                                ; preds = %1
  invoke fastcc void @_ZN12_GLOBAL__N_19TestParseILi2EEEvRAT__PKcidSt17basic_string_viewIcSt11char_traitsIcEEbi(ptr noundef nonnull align 8 dereferenceable(16) %2, i32 noundef 17, double noundef 1.100000e+00, i64 1, ptr nonnull @.str.343, i1 noundef zeroext true)
          to label %6 unwind label %9

6:                                                ; preds = %5
  call void @_ZN4absl13base_internal12ScopedSetEnvD1Ev(ptr noundef nonnull align 8 dereferenceable(65) %4) #33
  call void @llvm.lifetime.end.p0(i64 72, ptr nonnull %4) #33
  call void @_ZN4absl13base_internal12ScopedSetEnvD1Ev(ptr noundef nonnull align 8 dereferenceable(65) %3) #33
  call void @llvm.lifetime.end.p0(i64 72, ptr nonnull %3) #33
  call void @llvm.lifetime.end.p0(i64 16, ptr nonnull %2) #33
  ret void

7:                                                ; preds = %1
  %8 = landingpad { ptr, i32 }
          cleanup
  br label %11

9:                                                ; preds = %5
  %10 = landingpad { ptr, i32 }
          cleanup
  call void @_ZN4absl13base_internal12ScopedSetEnvD1Ev(ptr noundef nonnull align 8 dereferenceable(65) %4) #33
  br label %11

11:                                               ; preds = %9, %7
  %.pn = phi { ptr, i32 } [ %10, %9 ], [ %8, %7 ]
  call void @llvm.lifetime.end.p0(i64 72, ptr nonnull %4) #33
  call void @_ZN4absl13base_internal12ScopedSetEnvD1Ev(ptr noundef nonnull align 8 dereferenceable(65) %3) #33
  call void @llvm.lifetime.end.p0(i64 72, ptr nonnull %3) #33
  call void @llvm.lifetime.end.p0(i64 16, ptr nonnull %2) #33
  resume { ptr, i32 } %.pn
}